{
   <insert_a_suppression_name_here>
   Memcheck:Leak
   match-leak-kinds: possible
   fun:calloc
   fun:_ZN3scc10hash_table12bucket_array32BucketArray$LT$K$C$V$C$L$C$_$GT$3new17h3c6e4c14b40b1a37E
   fun:_ZN7taos_ws5query4asyn13WsQuerySender9send_recv28_$u7b$$u7b$closure$u7d$$u7d$28_$u7b$$u7b$closure$u7d$$u7d$17he31edee2ab4c9719E.llvm.10351630704282588696
   fun:_ZN7taos_ws5query4asyn13WsQuerySender9send_recv28_$u7b$$u7b$closure$u7d$$u7d$17h54e7d312310a7dbcE.llvm.10351630704282588696
   fun:_ZN7taos_ws5query4asyn6WsTaos19s_query_with_req_id28_$u7b$$u7b$closure$u7d$$u7d$28_$u7b$$u7b$closure$u7d$$u7d$17h401558c963355f12E
   fun:_ZN91_$LT$tracing..instrument..Instrumented$LT$T$GT$$u20$as$u20$core..future..future..Future$GT$4poll17hae9c12979808825bE
   fun:_ZN83_$LT$taos_ws..query..Taos$u20$as$u20$taos_query..prelude..async..AsyncQueryable$GT$5query28_$u7b$$u7b$closure$u7d$$u7d$17h4b9359d1a1c755fbE.llvm.870302479201606134
   fun:_ZN10taos_query7prelude5async14AsyncQueryable9query_one28_$u7b$$u7b$closure$u7d$$u7d$17hd364532ce2dab158E
   fun:_ZN5tokio7runtime4park16CachedParkThread8block_on17h1fe6554b0ba06084E
   fun:_ZN5tokio7runtime7context7runtime13enter_runtime17hde0e9a46b4bfb693E
   fun:_ZN5tokio7runtime7runtime7Runtime8block_on17h25eb9db81fa8853fE
   fun:_ZN94_$LT$taos_ws..stmt..Stmt$u20$as$u20$taos_query..stmt..Bindable$LT$taos_ws..query..Taos$GT$$GT$16init_with_req_id17he3c313c80d0c3237E
   fun:ws_stmt_init_with_reqid
   fun:call_ws_stmt_init
   fun:on_connected
   fun:on_init
   fun:run_regress
   fun:start_by_arg
   fun:start
   fun:main
}
{
   <insert_a_suppression_name_here>
   Memcheck:Leak
   match-leak-kinds: possible
   fun:malloc
   fun:_ZN9hashbrown3raw5inner21RawTable$LT$T$C$A$GT$14reserve_rehash17h14b550d62d7f5f08E
   fun:_ZN7dashmap24DashMap$LT$K$C$V$C$S$GT$6insert17h6fa3c854fcb9c62fE
   fun:_ZN7taos_ws4stmt4Stmt26taos_stmt_init_with_req_id28_$u7b$$u7b$closure$u7d$$u7d$17h276dc9f0a481419cE.llvm.18201363308859836289
   fun:_ZN5tokio7runtime4park16CachedParkThread8block_on17hddf949793d2a9637E
   fun:_ZN5tokio7runtime7context7runtime13enter_runtime17hb92a2713934e8162E
   fun:_ZN5tokio7runtime7runtime7Runtime8block_on17h8e8767dcad70ee65E
   fun:_ZN94_$LT$taos_ws..stmt..Stmt$u20$as$u20$taos_query..stmt..Bindable$LT$taos_ws..query..Taos$GT$$GT$16init_with_req_id17he3c313c80d0c3237E
   fun:ws_stmt_init_with_reqid
   fun:call_ws_stmt_init
   fun:on_connected
   fun:on_init
   fun:run_regress
   fun:start_by_arg
   fun:start
   fun:main
}
{
   <insert_a_suppression_name_here>
   Memcheck:Leak
   match-leak-kinds: possible
   fun:malloc
   fun:_ZN9hashbrown3raw5inner21RawTable$LT$T$C$A$GT$14reserve_rehash17hbe064eac18f5bf14E
   fun:_ZN7dashmap24DashMap$LT$K$C$V$C$S$GT$6insert17h0766b79b40c0fc47E
   fun:_ZN7taos_ws4stmt4Stmt26taos_stmt_init_with_req_id28_$u7b$$u7b$closure$u7d$$u7d$17h276dc9f0a481419cE.llvm.18201363308859836289
   fun:_ZN5tokio7runtime4park16CachedParkThread8block_on17hddf949793d2a9637E
   fun:_ZN5tokio7runtime7context7runtime13enter_runtime17hb92a2713934e8162E
   fun:_ZN5tokio7runtime7runtime7Runtime8block_on17h8e8767dcad70ee65E
   fun:_ZN94_$LT$taos_ws..stmt..Stmt$u20$as$u20$taos_query..stmt..Bindable$LT$taos_ws..query..Taos$GT$$GT$16init_with_req_id17he3c313c80d0c3237E
   fun:ws_stmt_init_with_reqid
   fun:call_ws_stmt_init
   fun:on_connected
   fun:on_init
   fun:run_regress
   fun:start_by_arg
   fun:start
   fun:main
}
{
   <insert_a_suppression_name_here>
   Memcheck:Leak
   match-leak-kinds: possible
   fun:malloc
   fun:_ZN9hashbrown3raw5inner21RawTable$LT$T$C$A$GT$14reserve_rehash17h3f6c86c3a5bfb4cbE
   fun:_ZN7dashmap24DashMap$LT$K$C$V$C$S$GT$6insert17hcaed6387013e9c29E
   fun:_ZN7taos_ws4stmt4Stmt26taos_stmt_init_with_req_id28_$u7b$$u7b$closure$u7d$$u7d$17h276dc9f0a481419cE.llvm.18201363308859836289
   fun:_ZN5tokio7runtime4park16CachedParkThread8block_on17hddf949793d2a9637E
   fun:_ZN5tokio7runtime7context7runtime13enter_runtime17hb92a2713934e8162E
   fun:_ZN5tokio7runtime7runtime7Runtime8block_on17h8e8767dcad70ee65E
   fun:_ZN94_$LT$taos_ws..stmt..Stmt$u20$as$u20$taos_query..stmt..Bindable$LT$taos_ws..query..Taos$GT$$GT$16init_with_req_id17he3c313c80d0c3237E
   fun:ws_stmt_init_with_reqid
   fun:call_ws_stmt_init
   fun:on_connected
   fun:on_init
   fun:run_regress
   fun:start_by_arg
   fun:start
   fun:main
}
{
   <insert_a_suppression_name_here>
   Memcheck:Leak
   match-leak-kinds: possible
   fun:malloc
   fun:_ZN9hashbrown3raw5inner21RawTable$LT$T$C$A$GT$14reserve_rehash17h648eb690513f837cE
   fun:_ZN7dashmap24DashMap$LT$K$C$V$C$S$GT$6insert17he18fa41de8387edfE
   fun:_ZN7taos_ws4stmt4Stmt26taos_stmt_init_with_req_id28_$u7b$$u7b$closure$u7d$$u7d$17h276dc9f0a481419cE.llvm.18201363308859836289
   fun:_ZN5tokio7runtime4park16CachedParkThread8block_on17hddf949793d2a9637E
   fun:_ZN5tokio7runtime7context7runtime13enter_runtime17hb92a2713934e8162E
   fun:_ZN5tokio7runtime7runtime7Runtime8block_on17h8e8767dcad70ee65E
   fun:_ZN94_$LT$taos_ws..stmt..Stmt$u20$as$u20$taos_query..stmt..Bindable$LT$taos_ws..query..Taos$GT$$GT$16init_with_req_id17he3c313c80d0c3237E
   fun:ws_stmt_init_with_reqid
   fun:call_ws_stmt_init
   fun:on_connected
   fun:on_init
   fun:run_regress
   fun:start_by_arg
   fun:start
   fun:main
}
{
   <insert_a_suppression_name_here>
   Memcheck:Leak
   match-leak-kinds: possible
   fun:malloc
   fun:_ZN9hashbrown3raw5inner21RawTable$LT$T$C$A$GT$14reserve_rehash17h7003092ace326ad1E
   fun:_ZN7dashmap24DashMap$LT$K$C$V$C$S$GT$6insert17h17a458339c71cabaE
   fun:_ZN7taos_ws4stmt4Stmt26taos_stmt_init_with_req_id28_$u7b$$u7b$closure$u7d$$u7d$17h276dc9f0a481419cE.llvm.18201363308859836289
   fun:_ZN5tokio7runtime4park16CachedParkThread8block_on17hddf949793d2a9637E
   fun:_ZN5tokio7runtime7context7runtime13enter_runtime17hb92a2713934e8162E
   fun:_ZN5tokio7runtime7runtime7Runtime8block_on17h8e8767dcad70ee65E
   fun:_ZN94_$LT$taos_ws..stmt..Stmt$u20$as$u20$taos_query..stmt..Bindable$LT$taos_ws..query..Taos$GT$$GT$16init_with_req_id17he3c313c80d0c3237E
   fun:ws_stmt_init_with_reqid
   fun:call_ws_stmt_init
   fun:on_connected
   fun:on_init
   fun:run_regress
   fun:start_by_arg
   fun:start
   fun:main
}
{
   <insert_a_suppression_name_here>
   Memcheck:Leak
   match-leak-kinds: possible
   fun:posix_memalign
   fun:__rdl_alloc
   fun:_ZN5tokio4sync4mpsc4chan7channel17hea8a69e7e1967365E
   fun:_ZN7taos_ws4stmt4Stmt26taos_stmt_init_with_req_id28_$u7b$$u7b$closure$u7d$$u7d$17h276dc9f0a481419cE.llvm.18201363308859836289
   fun:_ZN5tokio7runtime4park16CachedParkThread8block_on17hddf949793d2a9637E
   fun:_ZN5tokio7runtime7context7runtime13enter_runtime17hb92a2713934e8162E
   fun:_ZN5tokio7runtime7runtime7Runtime8block_on17h8e8767dcad70ee65E
   fun:_ZN94_$LT$taos_ws..stmt..Stmt$u20$as$u20$taos_query..stmt..Bindable$LT$taos_ws..query..Taos$GT$$GT$16init_with_req_id17he3c313c80d0c3237E
   fun:ws_stmt_init_with_reqid
   fun:call_ws_stmt_init
   fun:on_connected
   fun:on_init
   fun:run_regress
   fun:start_by_arg
   fun:start
   fun:main
}
{
   <insert_a_suppression_name_here>
   Memcheck:Leak
   match-leak-kinds: possible
   fun:posix_memalign
   fun:__rdl_alloc
   fun:_ZN5tokio4sync4mpsc4chan7channel17h9512ec5db72985e7E
   fun:_ZN7taos_ws4stmt4Stmt26taos_stmt_init_with_req_id28_$u7b$$u7b$closure$u7d$$u7d$17h276dc9f0a481419cE.llvm.18201363308859836289
   fun:_ZN5tokio7runtime4park16CachedParkThread8block_on17hddf949793d2a9637E
   fun:_ZN5tokio7runtime7context7runtime13enter_runtime17hb92a2713934e8162E
   fun:_ZN5tokio7runtime7runtime7Runtime8block_on17h8e8767dcad70ee65E
   fun:_ZN94_$LT$taos_ws..stmt..Stmt$u20$as$u20$taos_query..stmt..Bindable$LT$taos_ws..query..Taos$GT$$GT$16init_with_req_id17he3c313c80d0c3237E
   fun:ws_stmt_init_with_reqid
   fun:call_ws_stmt_init
   fun:on_connected
   fun:on_init
   fun:run_regress
   fun:start_by_arg
   fun:start
   fun:main
}
{
   <insert_a_suppression_name_here>
   Memcheck:Leak
   match-leak-kinds: possible
   fun:posix_memalign
   fun:__rdl_alloc
   fun:_ZN5tokio4sync4mpsc4chan7channel17hdf35ff9f69a12746E
   fun:_ZN7taos_ws4stmt4Stmt26taos_stmt_init_with_req_id28_$u7b$$u7b$closure$u7d$$u7d$17h276dc9f0a481419cE.llvm.18201363308859836289
   fun:_ZN5tokio7runtime4park16CachedParkThread8block_on17hddf949793d2a9637E
   fun:_ZN5tokio7runtime7context7runtime13enter_runtime17hb92a2713934e8162E
   fun:_ZN5tokio7runtime7runtime7Runtime8block_on17h8e8767dcad70ee65E
   fun:_ZN94_$LT$taos_ws..stmt..Stmt$u20$as$u20$taos_query..stmt..Bindable$LT$taos_ws..query..Taos$GT$$GT$16init_with_req_id17he3c313c80d0c3237E
   fun:ws_stmt_init_with_reqid
   fun:call_ws_stmt_init
   fun:on_connected
   fun:on_init
   fun:run_regress
   fun:start_by_arg
   fun:start
   fun:main
}
{
   <insert_a_suppression_name_here>
   Memcheck:Leak
   match-leak-kinds: possible
   fun:posix_memalign
   fun:__rdl_alloc
   fun:_ZN5tokio4sync4mpsc4chan7channel17h5c6a23ae5f3a78ffE
   fun:_ZN7taos_ws4stmt4Stmt26taos_stmt_init_with_req_id28_$u7b$$u7b$closure$u7d$$u7d$17h276dc9f0a481419cE.llvm.18201363308859836289
   fun:_ZN5tokio7runtime4park16CachedParkThread8block_on17hddf949793d2a9637E
   fun:_ZN5tokio7runtime7context7runtime13enter_runtime17hb92a2713934e8162E
   fun:_ZN5tokio7runtime7runtime7Runtime8block_on17h8e8767dcad70ee65E
   fun:_ZN94_$LT$taos_ws..stmt..Stmt$u20$as$u20$taos_query..stmt..Bindable$LT$taos_ws..query..Taos$GT$$GT$16init_with_req_id17he3c313c80d0c3237E
   fun:ws_stmt_init_with_reqid
   fun:call_ws_stmt_init
   fun:on_connected
   fun:on_init
   fun:run_regress
   fun:start_by_arg
   fun:start
   fun:main
}
{
   <insert_a_suppression_name_here>
   Memcheck:Leak
   match-leak-kinds: possible
   fun:malloc
   fun:_ZN5tokio4sync4mpsc4chan7channel17hea8a69e7e1967365E
   fun:_ZN7taos_ws4stmt4Stmt26taos_stmt_init_with_req_id28_$u7b$$u7b$closure$u7d$$u7d$17h276dc9f0a481419cE.llvm.18201363308859836289
   fun:_ZN5tokio7runtime4park16CachedParkThread8block_on17hddf949793d2a9637E
   fun:_ZN5tokio7runtime7context7runtime13enter_runtime17hb92a2713934e8162E
   fun:_ZN5tokio7runtime7runtime7Runtime8block_on17h8e8767dcad70ee65E
   fun:_ZN94_$LT$taos_ws..stmt..Stmt$u20$as$u20$taos_query..stmt..Bindable$LT$taos_ws..query..Taos$GT$$GT$16init_with_req_id17he3c313c80d0c3237E
   fun:ws_stmt_init_with_reqid
   fun:call_ws_stmt_init
   fun:on_connected
   fun:on_init
   fun:run_regress
   fun:start_by_arg
   fun:start
   fun:main
}
{
   <insert_a_suppression_name_here>
   Memcheck:Leak
   match-leak-kinds: possible
   fun:malloc
   fun:_ZN5tokio4sync4mpsc4chan7channel17h9512ec5db72985e7E
   fun:_ZN7taos_ws4stmt4Stmt26taos_stmt_init_with_req_id28_$u7b$$u7b$closure$u7d$$u7d$17h276dc9f0a481419cE.llvm.18201363308859836289
   fun:_ZN5tokio7runtime4park16CachedParkThread8block_on17hddf949793d2a9637E
   fun:_ZN5tokio7runtime7context7runtime13enter_runtime17hb92a2713934e8162E
   fun:_ZN5tokio7runtime7runtime7Runtime8block_on17h8e8767dcad70ee65E
   fun:_ZN94_$LT$taos_ws..stmt..Stmt$u20$as$u20$taos_query..stmt..Bindable$LT$taos_ws..query..Taos$GT$$GT$16init_with_req_id17he3c313c80d0c3237E
   fun:ws_stmt_init_with_reqid
   fun:call_ws_stmt_init
   fun:on_connected
   fun:on_init
   fun:run_regress
   fun:start_by_arg
   fun:start
   fun:main
}
{
   <insert_a_suppression_name_here>
   Memcheck:Leak
   match-leak-kinds: possible
   fun:malloc
   fun:_ZN5tokio4sync4mpsc4chan7channel17h5c6a23ae5f3a78ffE
   fun:_ZN7taos_ws4stmt4Stmt26taos_stmt_init_with_req_id28_$u7b$$u7b$closure$u7d$$u7d$17h276dc9f0a481419cE.llvm.18201363308859836289
   fun:_ZN5tokio7runtime4park16CachedParkThread8block_on17hddf949793d2a9637E
   fun:_ZN5tokio7runtime7context7runtime13enter_runtime17hb92a2713934e8162E
   fun:_ZN5tokio7runtime7runtime7Runtime8block_on17h8e8767dcad70ee65E
   fun:_ZN94_$LT$taos_ws..stmt..Stmt$u20$as$u20$taos_query..stmt..Bindable$LT$taos_ws..query..Taos$GT$$GT$16init_with_req_id17he3c313c80d0c3237E
   fun:ws_stmt_init_with_reqid
   fun:call_ws_stmt_init
   fun:on_connected
   fun:on_init
   fun:run_regress
   fun:start_by_arg
   fun:start
   fun:main
}
{
   <insert_a_suppression_name_here>
   Memcheck:Leak
   match-leak-kinds: possible
   fun:malloc
   fun:_ZN5tokio4sync4mpsc4chan7channel17hdf35ff9f69a12746E
   fun:_ZN7taos_ws4stmt4Stmt26taos_stmt_init_with_req_id28_$u7b$$u7b$closure$u7d$$u7d$17h276dc9f0a481419cE.llvm.18201363308859836289
   fun:_ZN5tokio7runtime4park16CachedParkThread8block_on17hddf949793d2a9637E
   fun:_ZN5tokio7runtime7context7runtime13enter_runtime17hb92a2713934e8162E
   fun:_ZN5tokio7runtime7runtime7Runtime8block_on17h8e8767dcad70ee65E
   fun:_ZN94_$LT$taos_ws..stmt..Stmt$u20$as$u20$taos_query..stmt..Bindable$LT$taos_ws..query..Taos$GT$$GT$16init_with_req_id17he3c313c80d0c3237E
   fun:ws_stmt_init_with_reqid
   fun:call_ws_stmt_init
   fun:on_connected
   fun:on_init
   fun:run_regress
   fun:start_by_arg
   fun:start
   fun:main
}
{
   <insert_a_suppression_name_here>
   Memcheck:Leak
   match-leak-kinds: possible
   fun:malloc
   fun:_ZN9hashbrown3raw5inner21RawTable$LT$T$C$A$GT$14reserve_rehash17ha9cbe54bf3bb991eE
   fun:_ZN7dashmap24DashMap$LT$K$C$V$C$S$GT$6insert17h2bbad4c8b3a37211E
   fun:_ZN7taos_ws4stmt4Stmt26taos_stmt_init_with_req_id28_$u7b$$u7b$closure$u7d$$u7d$17h276dc9f0a481419cE.llvm.18201363308859836289
   fun:_ZN5tokio7runtime4park16CachedParkThread8block_on17hddf949793d2a9637E
   fun:_ZN5tokio7runtime7context7runtime13enter_runtime17hb92a2713934e8162E
   fun:_ZN5tokio7runtime7runtime7Runtime8block_on17h8e8767dcad70ee65E
   fun:_ZN94_$LT$taos_ws..stmt..Stmt$u20$as$u20$taos_query..stmt..Bindable$LT$taos_ws..query..Taos$GT$$GT$16init_with_req_id17he3c313c80d0c3237E
   fun:ws_stmt_init_with_reqid
   fun:call_ws_stmt_init
   fun:on_connected
   fun:on_init
   fun:run_regress
   fun:start_by_arg
   fun:start
   fun:main
}
{
   <insert_a_suppression_name_here>
   Memcheck:Leak
   match-leak-kinds: possible
   fun:posix_memalign
   fun:__rdl_alloc
   fun:_ZN5tokio4sync4mpsc4chan7channel17h93b67b0ffb34055fE
   fun:_ZN7taos_ws4stmt4Stmt26taos_stmt_init_with_req_id28_$u7b$$u7b$closure$u7d$$u7d$17h276dc9f0a481419cE.llvm.18201363308859836289
   fun:_ZN5tokio7runtime4park16CachedParkThread8block_on17hddf949793d2a9637E
   fun:_ZN5tokio7runtime7context7runtime13enter_runtime17hb92a2713934e8162E
   fun:_ZN5tokio7runtime7runtime7Runtime8block_on17h8e8767dcad70ee65E
   fun:_ZN94_$LT$taos_ws..stmt..Stmt$u20$as$u20$taos_query..stmt..Bindable$LT$taos_ws..query..Taos$GT$$GT$16init_with_req_id17he3c313c80d0c3237E
   fun:ws_stmt_init_with_reqid
   fun:call_ws_stmt_init
   fun:on_connected
   fun:on_init
   fun:run_regress
   fun:start_by_arg
   fun:start
   fun:main
}
{
   <insert_a_suppression_name_here>
   Memcheck:Leak
   match-leak-kinds: possible
   fun:malloc
   fun:_ZN5tokio4sync4mpsc4chan7channel17h93b67b0ffb34055fE
   fun:_ZN7taos_ws4stmt4Stmt26taos_stmt_init_with_req_id28_$u7b$$u7b$closure$u7d$$u7d$17h276dc9f0a481419cE.llvm.18201363308859836289
   fun:_ZN5tokio7runtime4park16CachedParkThread8block_on17hddf949793d2a9637E
   fun:_ZN5tokio7runtime7context7runtime13enter_runtime17hb92a2713934e8162E
   fun:_ZN5tokio7runtime7runtime7Runtime8block_on17h8e8767dcad70ee65E
   fun:_ZN94_$LT$taos_ws..stmt..Stmt$u20$as$u20$taos_query..stmt..Bindable$LT$taos_ws..query..Taos$GT$$GT$16init_with_req_id17he3c313c80d0c3237E
   fun:ws_stmt_init_with_reqid
   fun:call_ws_stmt_init
   fun:on_connected
   fun:on_init
   fun:run_regress
   fun:start_by_arg
   fun:start
   fun:main
}